target datalayout = "e-m:e-p270:32:32-p271:32:32-p272:64:64-i64:64-i128:128-f80:128-n8:16:32:64-S128"
target triple = "x86_64-pc-linux-gnu"

%"class.enki::TaskScheduler" = type <{ [3 x ptr], [3 x ptr], i32, [4 x i8], ptr, ptr, %"struct.std::atomic", %"struct.std::atomic", %"struct.std::atomic", i8, %"struct.std::atomic.0", %"struct.std::atomic.0", %"struct.std::atomic.0", i32, [4 x i8], ptr, ptr, i32, i8, [3 x i8], %"struct.enki::TaskSchedulerConfig", %"struct.std::atomic.0", [4 x i8] }>
%"struct.std::atomic" = type { %"struct.std::__atomic_base" }
%"struct.std::__atomic_base" = type { i8 }
%"struct.enki::TaskSchedulerConfig" = type { i32, i32, %"struct.enki::ProfilerCallbacks", %"struct.enki::CustomAllocator" }
%"struct.enki::ProfilerCallbacks" = type { ptr, ptr, ptr, ptr, ptr, ptr, ptr, ptr }
%"struct.enki::CustomAllocator" = type { ptr, ptr, ptr }
%"struct.std::atomic.0" = type { %"struct.std::__atomic_base.1" }
%"struct.std::__atomic_base.1" = type { i32 }
%"struct.enki::ThreadDataStore" = type { ptr, %"struct.std::atomic.2", i32, [48 x i8] }
%"struct.std::atomic.2" = type { i32 }

@_ZL13gtl_threadNum = internal thread_local global i32 -1, align 4

; Function Attrs: noinline noreturn nounwind uwtable
define linkonce_odr hidden void @__clang_call_terminate(ptr noundef %0) #13 comdat {
  %2 = call ptr @__cxa_begin_catch(ptr %0) #14
  call void @_ZSt9terminatev() #21
  unreachable
}

; Function Attrs: mustprogress nounwind uwtable
define linkonce_odr dso_local noundef i32 @_ZStorSt12memory_orderSt23__memory_order_modifier(i32 noundef %0, i32 noundef %1) #5 comdat {
  %3 = alloca i32, align 4
  %4 = alloca i32, align 4
  store i32 %0, ptr %3, align 4, !tbaa !72
  store i32 %1, ptr %4, align 4, !tbaa !195
  %5 = load i32, ptr %3, align 4, !tbaa !72
  %6 = load i32, ptr %4, align 4, !tbaa !195
  %7 = or i32 %5, %6
  ret i32 %7
}

; Function Attrs: mustprogress nounwind uwtable
define linkonce_odr dso_local noundef i32 @_ZSt24__cmpexch_failure_order2St12memory_order(i32 noundef %0) #5 comdat {
  %2 = alloca i32, align 4
  store i32 %0, ptr %2, align 4, !tbaa !72
  %3 = load i32, ptr %2, align 4, !tbaa !72
  %4 = icmp eq i32 %3, 4
  br i1 %4, label %5, label %6

5:                                                ; preds = %1
  br label %14

6:                                                ; preds = %1
  %7 = load i32, ptr %2, align 4, !tbaa !72
  %8 = icmp eq i32 %7, 3
  br i1 %8, label %9, label %10

9:                                                ; preds = %6
  br label %12

10:                                               ; preds = %6
  %11 = load i32, ptr %2, align 4, !tbaa !72
  br label %12

12:                                               ; preds = %10, %9
  %13 = phi i32 [ 0, %9 ], [ %11, %10 ]
  br label %14

14:                                               ; preds = %12, %5
  %15 = phi i32 [ 2, %5 ], [ %13, %12 ]
  ret i32 %15
}

; Function Attrs: mustprogress nounwind uwtable
define linkonce_odr dso_local noundef i32 @_ZStanSt12memory_orderSt23__memory_order_modifier(i32 noundef %0, i32 noundef %1) #5 comdat {
  %3 = alloca i32, align 4
  %4 = alloca i32, align 4
  store i32 %0, ptr %3, align 4, !tbaa !72
  store i32 %1, ptr %4, align 4, !tbaa !195
  %5 = load i32, ptr %3, align 4, !tbaa !72
  %6 = load i32, ptr %4, align 4, !tbaa !195
  %7 = and i32 %5, %6
  ret i32 %7
}

; Function Attrs: mustprogress nounwind uwtable
define linkonce_odr dso_local noundef zeroext i1 @_ZNSt6atomicIN4enki11ThreadStateEE23compare_exchange_strongERS1_S1_St12memory_orderS4_(ptr noundef nonnull align 4 dereferenceable(4) %0, ptr noundef nonnull align 4 dereferenceable(4) %1, i32 noundef %2, i32 noundef %3, i32 noundef %4) #5 comdat align 2 {
  %6 = alloca ptr, align 8
  %7 = alloca ptr, align 8
  %8 = alloca i32, align 4
  %9 = alloca i32, align 4
  %10 = alloca i32, align 4
  %11 = alloca i8, align 1
  store ptr %0, ptr %6, align 8, !tbaa !70
  store ptr %1, ptr %7, align 8, !tbaa !58
  store i32 %2, ptr %8, align 4, !tbaa !26
  store i32 %3, ptr %9, align 4, !tbaa !72
  store i32 %4, ptr %10, align 4, !tbaa !72
  %12 = load ptr, ptr %6, align 8
  br label %13

13:                                               ; preds = %5
  br label %14

14:                                               ; preds = %13
  br label %15

15:                                               ; preds = %14
  %16 = getelementptr inbounds nuw %"struct.std::atomic.2", ptr %12, i32 0, i32 0
  %17 = load i32, ptr %9, align 4, !tbaa !72
  %18 = load ptr, ptr %7, align 8, !tbaa !58
  %19 = load i32, ptr %10, align 4, !tbaa !72
  switch i32 %17, label %20 [
    i32 1, label %21
    i32 2, label %21
    i32 3, label %22
    i32 4, label %23
    i32 5, label %24
  ]

20:                                               ; preds = %15
  switch i32 %19, label %28 [
    i32 1, label %34
    i32 2, label %34
    i32 5, label %40
  ]

21:                                               ; preds = %15, %15
  switch i32 %19, label %56 [
    i32 1, label %62
    i32 2, label %62
    i32 5, label %68
  ]

22:                                               ; preds = %15
  switch i32 %19, label %84 [
    i32 1, label %90
    i32 2, label %90
    i32 5, label %96
  ]

23:                                               ; preds = %15
  switch i32 %19, label %112 [
    i32 1, label %118
    i32 2, label %118
    i32 5, label %124
  ]

24:                                               ; preds = %15
  switch i32 %19, label %140 [
    i32 1, label %146
    i32 2, label %146
    i32 5, label %152
  ]

25:                                               ; preds = %158, %130, %102, %74, %46
  %26 = load i8, ptr %11, align 1, !tbaa !61, !range !62, !noundef !63
  %27 = trunc i8 %26 to i1
  ret i1 %27

28:                                               ; preds = %20
  %29 = load i32, ptr %18, align 4
  %30 = load i32, ptr %8, align 4
  %31 = cmpxchg ptr %16, i32 %29, i32 %30 monotonic monotonic, align 4
  %32 = extractvalue { i32, i1 } %31, 0
  %33 = extractvalue { i32, i1 } %31, 1
  br i1 %33, label %48, label %47

34:                                               ; preds = %20, %20
  %35 = load i32, ptr %18, align 4
  %36 = load i32, ptr %8, align 4
  %37 = cmpxchg ptr %16, i32 %35, i32 %36 monotonic acquire, align 4
  %38 = extractvalue { i32, i1 } %37, 0
  %39 = extractvalue { i32, i1 } %37, 1
  br i1 %39, label %51, label %50

40:                                               ; preds = %20
  %41 = load i32, ptr %18, align 4
  %42 = load i32, ptr %8, align 4
  %43 = cmpxchg ptr %16, i32 %41, i32 %42 monotonic seq_cst, align 4
  %44 = extractvalue { i32, i1 } %43, 0
  %45 = extractvalue { i32, i1 } %43, 1
  br i1 %45, label %54, label %53

46:                                               ; preds = %54, %51, %48
  br label %25

47:                                               ; preds = %28
  store i32 %32, ptr %18, align 4
  br label %48

48:                                               ; preds = %47, %28
  %49 = zext i1 %33 to i8
  store i8 %49, ptr %11, align 1, !tbaa !61
  br label %46

50:                                               ; preds = %34
  store i32 %38, ptr %18, align 4
  br label %51

51:                                               ; preds = %50, %34
  %52 = zext i1 %39 to i8
  store i8 %52, ptr %11, align 1, !tbaa !61
  br label %46

53:                                               ; preds = %40
  store i32 %44, ptr %18, align 4
  br label %54

54:                                               ; preds = %53, %40
  %55 = zext i1 %45 to i8
  store i8 %55, ptr %11, align 1, !tbaa !61
  br label %46

56:                                               ; preds = %21
  %57 = load i32, ptr %18, align 4
  %58 = load i32, ptr %8, align 4
  %59 = cmpxchg ptr %16, i32 %57, i32 %58 acquire monotonic, align 4
  %60 = extractvalue { i32, i1 } %59, 0
  %61 = extractvalue { i32, i1 } %59, 1
  br i1 %61, label %76, label %75

62:                                               ; preds = %21, %21
  %63 = load i32, ptr %18, align 4
  %64 = load i32, ptr %8, align 4
  %65 = cmpxchg ptr %16, i32 %63, i32 %64 acquire acquire, align 4
  %66 = extractvalue { i32, i1 } %65, 0
  %67 = extractvalue { i32, i1 } %65, 1
  br i1 %67, label %79, label %78

68:                                               ; preds = %21
  %69 = load i32, ptr %18, align 4
  %70 = load i32, ptr %8, align 4
  %71 = cmpxchg ptr %16, i32 %69, i32 %70 acquire seq_cst, align 4
  %72 = extractvalue { i32, i1 } %71, 0
  %73 = extractvalue { i32, i1 } %71, 1
  br i1 %73, label %82, label %81

74:                                               ; preds = %82, %79, %76
  br label %25

75:                                               ; preds = %56
  store i32 %60, ptr %18, align 4
  br label %76

76:                                               ; preds = %75, %56
  %77 = zext i1 %61 to i8
  store i8 %77, ptr %11, align 1, !tbaa !61
  br label %74

78:                                               ; preds = %62
  store i32 %66, ptr %18, align 4
  br label %79

79:                                               ; preds = %78, %62
  %80 = zext i1 %67 to i8
  store i8 %80, ptr %11, align 1, !tbaa !61
  br label %74

81:                                               ; preds = %68
  store i32 %72, ptr %18, align 4
  br label %82

82:                                               ; preds = %81, %68
  %83 = zext i1 %73 to i8
  store i8 %83, ptr %11, align 1, !tbaa !61
  br label %74

84:                                               ; preds = %22
  %85 = load i32, ptr %18, align 4
  %86 = load i32, ptr %8, align 4
  %87 = cmpxchg ptr %16, i32 %85, i32 %86 release monotonic, align 4
  %88 = extractvalue { i32, i1 } %87, 0
  %89 = extractvalue { i32, i1 } %87, 1
  br i1 %89, label %104, label %103

90:                                               ; preds = %22, %22
  %91 = load i32, ptr %18, align 4
  %92 = load i32, ptr %8, align 4
  %93 = cmpxchg ptr %16, i32 %91, i32 %92 release acquire, align 4
  %94 = extractvalue { i32, i1 } %93, 0
  %95 = extractvalue { i32, i1 } %93, 1
  br i1 %95, label %107, label %106

96:                                               ; preds = %22
  %97 = load i32, ptr %18, align 4
  %98 = load i32, ptr %8, align 4
  %99 = cmpxchg ptr %16, i32 %97, i32 %98 release seq_cst, align 4
  %100 = extractvalue { i32, i1 } %99, 0
  %101 = extractvalue { i32, i1 } %99, 1
  br i1 %101, label %110, label %109

102:                                              ; preds = %110, %107, %104
  br label %25

103:                                              ; preds = %84
  store i32 %88, ptr %18, align 4
  br label %104

104:                                              ; preds = %103, %84
  %105 = zext i1 %89 to i8
  store i8 %105, ptr %11, align 1, !tbaa !61
  br label %102

106:                                              ; preds = %90
  store i32 %94, ptr %18, align 4
  br label %107

107:                                              ; preds = %106, %90
  %108 = zext i1 %95 to i8
  store i8 %108, ptr %11, align 1, !tbaa !61
  br label %102

109:                                              ; preds = %96
  store i32 %100, ptr %18, align 4
  br label %110

110:                                              ; preds = %109, %96
  %111 = zext i1 %101 to i8
  store i8 %111, ptr %11, align 1, !tbaa !61
  br label %102

112:                                              ; preds = %23
  %113 = load i32, ptr %18, align 4
  %114 = load i32, ptr %8, align 4
  %115 = cmpxchg ptr %16, i32 %113, i32 %114 acq_rel monotonic, align 4
  %116 = extractvalue { i32, i1 } %115, 0
  %117 = extractvalue { i32, i1 } %115, 1
  br i1 %117, label %132, label %131

118:                                              ; preds = %23, %23
  %119 = load i32, ptr %18, align 4
  %120 = load i32, ptr %8, align 4
  %121 = cmpxchg ptr %16, i32 %119, i32 %120 acq_rel acquire, align 4
  %122 = extractvalue { i32, i1 } %121, 0
  %123 = extractvalue { i32, i1 } %121, 1
  br i1 %123, label %135, label %134

124:                                              ; preds = %23
  %125 = load i32, ptr %18, align 4
  %126 = load i32, ptr %8, align 4
  %127 = cmpxchg ptr %16, i32 %125, i32 %126 acq_rel seq_cst, align 4
  %128 = extractvalue { i32, i1 } %127, 0
  %129 = extractvalue { i32, i1 } %127, 1
  br i1 %129, label %138, label %137

130:                                              ; preds = %138, %135, %132
  br label %25

131:                                              ; preds = %112
  store i32 %116, ptr %18, align 4
  br label %132

132:                                              ; preds = %131, %112
  %133 = zext i1 %117 to i8
  store i8 %133, ptr %11, align 1, !tbaa !61
  br label %130

134:                                              ; preds = %118
  store i32 %122, ptr %18, align 4
  br label %135

135:                                              ; preds = %134, %118
  %136 = zext i1 %123 to i8
  store i8 %136, ptr %11, align 1, !tbaa !61
  br label %130

137:                                              ; preds = %124
  store i32 %128, ptr %18, align 4
  br label %138

138:                                              ; preds = %137, %124
  %139 = zext i1 %129 to i8
  store i8 %139, ptr %11, align 1, !tbaa !61
  br label %130

140:                                              ; preds = %24
  %141 = load i32, ptr %18, align 4
  %142 = load i32, ptr %8, align 4
  %143 = cmpxchg ptr %16, i32 %141, i32 %142 seq_cst monotonic, align 4
  %144 = extractvalue { i32, i1 } %143, 0
  %145 = extractvalue { i32, i1 } %143, 1
  br i1 %145, label %160, label %159

146:                                              ; preds = %24, %24
  %147 = load i32, ptr %18, align 4
  %148 = load i32, ptr %8, align 4
  %149 = cmpxchg ptr %16, i32 %147, i32 %148 seq_cst acquire, align 4
  %150 = extractvalue { i32, i1 } %149, 0
  %151 = extractvalue { i32, i1 } %149, 1
  br i1 %151, label %163, label %162

152:                                              ; preds = %24
  %153 = load i32, ptr %18, align 4
  %154 = load i32, ptr %8, align 4
  %155 = cmpxchg ptr %16, i32 %153, i32 %154 seq_cst seq_cst, align 4
  %156 = extractvalue { i32, i1 } %155, 0
  %157 = extractvalue { i32, i1 } %155, 1
  br i1 %157, label %166, label %165

158:                                              ; preds = %166, %163, %160
  br label %25

159:                                              ; preds = %140
  store i32 %144, ptr %18, align 4
  br label %160

160:                                              ; preds = %159, %140
  %161 = zext i1 %145 to i8
  store i8 %161, ptr %11, align 1, !tbaa !61
  br label %158

162:                                              ; preds = %146
  store i32 %150, ptr %18, align 4
  br label %163

163:                                              ; preds = %162, %146
  %164 = zext i1 %151 to i8
  store i8 %164, ptr %11, align 1, !tbaa !61
  br label %158

165:                                              ; preds = %152
  store i32 %156, ptr %18, align 4
  br label %166

166:                                              ; preds = %165, %152
  %167 = zext i1 %157 to i8
  store i8 %167, ptr %11, align 1, !tbaa !61
  br label %158
}

; Function Attrs: mustprogress nounwind uwtable
define linkonce_odr dso_local noundef i32 @_ZSt23__cmpexch_failure_orderSt12memory_order(i32 noundef %0) #5 comdat personality ptr @__gxx_personality_v0 {
  %2 = alloca i32, align 4
  store i32 %0, ptr %2, align 4, !tbaa !72
  %3 = load i32, ptr %2, align 4, !tbaa !72
  %4 = call noundef i32 @_ZStanSt12memory_orderSt23__memory_order_modifier(i32 noundef %3, i32 noundef 65535)
  %5 = call noundef i32 @_ZSt24__cmpexch_failure_order2St12memory_order(i32 noundef %4) #14
  %6 = load i32, ptr %2, align 4, !tbaa !72
  %7 = call noundef i32 @_ZStanSt12memory_orderSt23__memory_order_modifier(i32 noundef %6, i32 noundef -65536)
  %8 = invoke noundef i32 @_ZStorSt12memory_orderSt23__memory_order_modifier(i32 noundef %5, i32 noundef %7)
          to label %9 unwind label %10

9:                                                ; preds = %1
  ret i32 %8

10:                                               ; preds = %1
  %11 = landingpad { ptr, i32 }
          catch ptr null
  %12 = extractvalue { ptr, i32 } %11, 0
  call void @__clang_call_terminate(ptr %12) #21
  unreachable
}

; Function Attrs: mustprogress nounwind uwtable
define linkonce_odr dso_local noundef i32 @_ZNSt13__atomic_baseIiEppEv(ptr noundef nonnull align 4 dereferenceable(4) %0) #5 comdat align 2 {
  %2 = alloca ptr, align 8
  %3 = alloca i32, align 4
  %4 = alloca i32, align 4
  store ptr %0, ptr %2, align 8, !tbaa !68
  %5 = load ptr, ptr %2, align 8
  %6 = getelementptr inbounds nuw %"struct.std::__atomic_base.1", ptr %5, i32 0, i32 0
  store i32 1, ptr %3, align 4, !tbaa !11
  %7 = load i32, ptr %3, align 4
  %8 = atomicrmw add ptr %6, i32 %7 seq_cst, align 4
  %9 = add i32 %8, %7
  store i32 %9, ptr %4, align 4
  %10 = load i32, ptr %4, align 4, !tbaa !11
  ret i32 %10
}

; Function Attrs: mustprogress nounwind uwtable
define linkonce_odr dso_local noundef zeroext i1 @_ZNSt6atomicIN4enki11ThreadStateEE23compare_exchange_strongERS1_S1_St12memory_order(ptr noundef nonnull align 4 dereferenceable(4) %0, ptr noundef nonnull align 4 dereferenceable(4) %1, i32 noundef %2, i32 noundef %3) #5 comdat align 2 {
  %5 = alloca ptr, align 8
  %6 = alloca ptr, align 8
  %7 = alloca i32, align 4
  %8 = alloca i32, align 4
  store ptr %0, ptr %5, align 8, !tbaa !70
  store ptr %1, ptr %6, align 8, !tbaa !58
  store i32 %2, ptr %7, align 4, !tbaa !26
  store i32 %3, ptr %8, align 4, !tbaa !72
  %9 = load ptr, ptr %5, align 8
  %10 = load ptr, ptr %6, align 8, !tbaa !58
  %11 = load i32, ptr %7, align 4, !tbaa !26
  %12 = load i32, ptr %8, align 4, !tbaa !72
  %13 = load i32, ptr %8, align 4, !tbaa !72
  %14 = call noundef i32 @_ZSt23__cmpexch_failure_orderSt12memory_order(i32 noundef %13) #14
  %15 = call noundef zeroext i1 @_ZNSt6atomicIN4enki11ThreadStateEE23compare_exchange_strongERS1_S1_St12memory_orderS4_(ptr noundef nonnull align 4 dereferenceable(4) %9, ptr noundef nonnull align 4 dereferenceable(4) %10, i32 noundef %11, i32 noundef %12, i32 noundef %14) #14
  ret i1 %15
}

; Function Attrs: mustprogress nounwind uwtable
define dso_local noundef zeroext i1 @_ZN4enki13TaskScheduler26RegisterExternalTaskThreadEj(ptr noundef nonnull align 8 dereferenceable(220) %0, i32 noundef %1) #5 align 2 {
  %3 = alloca i1, align 1
  %4 = alloca ptr, align 8
  %5 = alloca i32, align 4
  %6 = alloca i32, align 4
  %7 = alloca i32, align 4
  store ptr %0, ptr %4, align 8, !tbaa !4
  store i32 %1, ptr %5, align 4, !tbaa !11
  %8 = load ptr, ptr %4, align 8
  call void @llvm.lifetime.start.p0(i64 4, ptr %6) #14
  store i32 5, ptr %6, align 4, !tbaa !26
  %9 = getelementptr inbounds nuw %"class.enki::TaskScheduler", ptr %8, i32 0, i32 4
  %10 = load ptr, ptr %9, align 8, !tbaa !13
  %11 = load i32, ptr %5, align 4, !tbaa !11
  %12 = zext i32 %11 to i64
  %13 = getelementptr inbounds nuw %"struct.enki::ThreadDataStore", ptr %10, i64 %12
  %14 = getelementptr inbounds nuw %"struct.enki::ThreadDataStore", ptr %13, i32 0, i32 1
  %15 = call noundef zeroext i1 @_ZNSt6atomicIN4enki11ThreadStateEE23compare_exchange_strongERS1_S1_St12memory_order(ptr noundef nonnull align 4 dereferenceable(4) %14, ptr noundef nonnull align 4 dereferenceable(4) %6, i32 noundef 4, i32 noundef 5) #14
  br i1 %15, label %16, label %21

16:                                               ; preds = %2
  %17 = getelementptr inbounds nuw %"class.enki::TaskScheduler", ptr %8, i32 0, i32 21
  %18 = call noundef i32 @_ZNSt13__atomic_baseIiEppEv(ptr noundef nonnull align 4 dereferenceable(4) %17) #14
  %19 = load i32, ptr %5, align 4, !tbaa !11
  %20 = call align 4 ptr @llvm.threadlocal.address.p0(ptr align 4 @_ZL13gtl_threadNum)
  store i32 %19, ptr %20, align 4, !tbaa !11
  store i1 true, ptr %3, align 1
  store i32 1, ptr %7, align 4
  br label %22

21:                                               ; preds = %2
  store i1 false, ptr %3, align 1
  store i32 1, ptr %7, align 4
  br label %22

22:                                               ; preds = %21, %16
  call void @llvm.lifetime.end.p0(i64 4, ptr %6) #14
  %23 = load i1, ptr %3, align 1
  ret i1 %23
}