; Function Attrs: mustprogress nofree norecurse nounwind willreturn memory(readwrite, inaccessiblemem: none) uwtable
define dso_local noundef zeroext i1 @_ZN4enki13TaskScheduler26RegisterExternalTaskThreadEj(ptr noundef nonnull align 8 captures(none) dereferenceable(220) %0, i32 noundef %1) local_unnamed_addr #14 align 2 personality ptr @__gxx_personality_v0 {
  %3 = getelementptr inbounds nuw i8, ptr %0, i64 56
  %4 = load ptr, ptr %3, align 8, !tbaa !4
  %5 = zext i32 %1 to i64
  %6 = getelementptr inbounds nuw %"struct.enki::ThreadDataStore", ptr %4, i64 %5, i32 1
  %7 = cmpxchg ptr %6, i32 5, i32 4 seq_cst seq_cst, align 4
  %8 = extractvalue { i32, i1 } %7, 1
  br i1 %8, label %9, label %_ZNSt6atomicIN4enki11ThreadStateEE23compare_exchange_strongERS1_S1_St12memory_orderS4_.exit

9:                                                ; preds = %2
  %10 = getelementptr inbounds nuw i8, ptr %0, i64 216
  %11 = atomicrmw add ptr %10, i32 1 seq_cst, align 4
  %12 = tail call align 4 ptr @llvm.threadlocal.address.p0(ptr align 4 @_ZL13gtl_threadNum)
  store i32 %1, ptr %12, align 4, !tbaa !27
  br label %_ZNSt6atomicIN4enki11ThreadStateEE23compare_exchange_strongERS1_S1_St12memory_orderS4_.exit

_ZNSt6atomicIN4enki11ThreadStateEE23compare_exchange_strongERS1_S1_St12memory_orderS4_.exit: ; preds = %2, %9
  ret i1 %8
}